target datalayout = "e-m:e-p270:32:32-p271:32:32-p272:64:64-i64:64-i128:128-f80:128-n8:16:32:64-S128"
target triple = "x86_64-pc-linux-gnu"

%struct.ossl_quic_frame_stop_sending_st = type { i64, i64 }

@.str.5 = private unnamed_addr constant [33 x i8] c"../openssl/test/quic_wire_test.c\00", align 1
@.str.23 = private unnamed_addr constant [9 x i8] c"fail < 0\00", align 1
@.str.47 = private unnamed_addr constant [3 x i8] c"&f\00", align 1
@encode_case_5_f = internal constant %struct.ossl_quic_frame_stop_sending_st { i64 4660, i64 38785 }, align 8
@.str.50 = private unnamed_addr constant [50 x i8] c"ossl_quic_wire_decode_frame_stop_sending(pkt, &f)\00", align 1
@.str.51 = private unnamed_addr constant [17 x i8] c"&encode_case_5_f\00", align 1

; Function Attrs: nounwind uwtable
define internal i32 @encode_case_5_dec(ptr noundef %0, i64 noundef %1) #0 {
  %3 = alloca i32, align 4
  %4 = alloca ptr, align 8
  %5 = alloca i64, align 8
  %6 = alloca %struct.ossl_quic_frame_stop_sending_st, align 8
  %7 = alloca i32, align 4
  store ptr %0, ptr %4, align 8, !tbaa !40
  store i64 %1, ptr %5, align 8, !tbaa !19
  call void @llvm.lifetime.start.p0(i64 16, ptr %6) #5
  call void @llvm.memset.p0.i64(ptr align 8 %6, i8 0, i64 16, i1 false)
  %8 = load ptr, ptr %4, align 8, !tbaa !40
  %9 = call i32 @ossl_quic_wire_decode_frame_stop_sending(ptr noundef %8, ptr noundef %6)
  %10 = load i64, ptr %5, align 8, !tbaa !19
  %11 = icmp slt i64 %10, 0
  %12 = zext i1 %11 to i32
  %13 = call i32 @test_int_eq(ptr noundef @.str.5, i32 noundef 224, ptr noundef @.str.50, ptr noundef @.str.23, i32 noundef %9, i32 noundef %12)
  %14 = icmp ne i32 %13, 0
  br i1 %14, label %16, label %15

15:                                               ; preds = %2
  store i32 0, ptr %3, align 4
  store i32 1, ptr %7, align 4
  br label %25

16:                                               ; preds = %2
  %17 = load i64, ptr %5, align 8, !tbaa !19
  %18 = icmp sge i64 %17, 0
  br i1 %18, label %19, label %20

19:                                               ; preds = %16
  store i32 1, ptr %3, align 4
  store i32 1, ptr %7, align 4
  br label %25

20:                                               ; preds = %16
  %21 = call i32 @test_mem_eq(ptr noundef @.str.5, i32 noundef 230, ptr noundef @.str.47, ptr noundef @.str.51, ptr noundef %6, i64 noundef 16, ptr noundef @encode_case_5_f, i64 noundef 16)
  %22 = icmp ne i32 %21, 0
  br i1 %22, label %24, label %23

23:                                               ; preds = %20
  store i32 0, ptr %3, align 4
  store i32 1, ptr %7, align 4
  br label %25

24:                                               ; preds = %20
  store i32 1, ptr %3, align 4
  store i32 1, ptr %7, align 4
  br label %25

25:                                               ; preds = %24, %23, %19, %15
  call void @llvm.lifetime.end.p0(i64 16, ptr %6) #5
  %26 = load i32, ptr %3, align 4
  ret i32 %26
}